target datalayout = "e-m:e-p270:32:32-p271:32:32-p272:64:64-i64:64-i128:128-f80:128-n8:16:32:64-S128"
target triple = "x86_64-pc-linux-gnu"

%struct.VVCFrame = type { ptr, ptr, ptr, ptr, ptr, ptr, i32, i32, i32, %struct.VVCWindow, i32, i32, ptr, ptr, i16, i8, ptr }
%struct.VVCWindow = type { i16, i16, i16, i16 }
%struct.AVFrame = type { [8 x ptr], [8 x i32], ptr, i32, i32, i32, i32, i32, %struct.AVRational, i64, i64, %struct.AVRational, i32, ptr, i32, i32, [8 x ptr], ptr, i32, ptr, i32, i32, i32, i32, i32, i32, i32, i64, ptr, i32, ptr, ptr, i64, i64, i64, i64, ptr, %struct.AVChannelLayout, i64 }
%struct.AVRational = type { i32, i32 }
%struct.AVChannelLayout = type { i32, i32, %union.anon, ptr }
%union.anon = type { i64 }

; Function Attrs: nounwind uwtable
define void @ff_vvc_unref_frame(ptr noundef %0, ptr noundef %1, i32 noundef %2) #0 {
  %4 = alloca ptr, align 8
  %5 = alloca ptr, align 8
  %6 = alloca i32, align 4
  store ptr %0, ptr %4, align 8, !tbaa !4
  store ptr %1, ptr %5, align 8, !tbaa !9
  store i32 %2, ptr %6, align 4, !tbaa !11
  %7 = load ptr, ptr %5, align 8, !tbaa !9
  %8 = getelementptr inbounds nuw %struct.VVCFrame, ptr %7, i32 0, i32 0
  %9 = load ptr, ptr %8, align 8, !tbaa !13
  %10 = icmp ne ptr %9, null
  br i1 %10, label %11, label %19

11:                                               ; preds = %3
  %12 = load ptr, ptr %5, align 8, !tbaa !9
  %13 = getelementptr inbounds nuw %struct.VVCFrame, ptr %12, i32 0, i32 0
  %14 = load ptr, ptr %13, align 8, !tbaa !13
  %15 = getelementptr inbounds nuw %struct.AVFrame, ptr %14, i32 0, i32 16
  %16 = getelementptr inbounds [8 x ptr], ptr %15, i64 0, i64 0
  %17 = load ptr, ptr %16, align 8, !tbaa !25
  %18 = icmp ne ptr %17, null
  br i1 %18, label %20, label %19

19:                                               ; preds = %11, %3
  br label %65

20:                                               ; preds = %11
  %21 = load i32, ptr %6, align 4, !tbaa !11
  %22 = xor i32 %21, -1
  %23 = load ptr, ptr %5, align 8, !tbaa !9
  %24 = getelementptr inbounds nuw %struct.VVCFrame, ptr %23, i32 0, i32 15
  %25 = load i8, ptr %24, align 2, !tbaa !27
  %26 = zext i8 %25 to i32
  %27 = and i32 %26, %22
  %28 = trunc i32 %27 to i8
  store i8 %28, ptr %24, align 2, !tbaa !27
  %29 = load ptr, ptr %5, align 8, !tbaa !9
  %30 = getelementptr inbounds nuw %struct.VVCFrame, ptr %29, i32 0, i32 15
  %31 = load i8, ptr %30, align 2, !tbaa !27
  %32 = zext i8 %31 to i32
  %33 = and i32 %32, -17
  %34 = icmp ne i32 %33, 0
  br i1 %34, label %38, label %35

35:                                               ; preds = %20
  %36 = load ptr, ptr %5, align 8, !tbaa !9
  %37 = getelementptr inbounds nuw %struct.VVCFrame, ptr %36, i32 0, i32 15
  store i8 0, ptr %37, align 2, !tbaa !27
  br label %38

38:                                               ; preds = %35, %20
  %39 = load ptr, ptr %5, align 8, !tbaa !9
  %40 = getelementptr inbounds nuw %struct.VVCFrame, ptr %39, i32 0, i32 15
  %41 = load i8, ptr %40, align 2, !tbaa !27
  %42 = icmp ne i8 %41, 0
  br i1 %42, label %65, label %43

43:                                               ; preds = %38
  %44 = load ptr, ptr %5, align 8, !tbaa !9
  %45 = getelementptr inbounds nuw %struct.VVCFrame, ptr %44, i32 0, i32 0
  %46 = load ptr, ptr %45, align 8, !tbaa !13
  call void @av_frame_unref(ptr noundef %46)
  %47 = load ptr, ptr %5, align 8, !tbaa !9
  %48 = getelementptr inbounds nuw %struct.VVCFrame, ptr %47, i32 0, i32 1
  call void @av_refstruct_unref(ptr noundef %48)
  %49 = load ptr, ptr %5, align 8, !tbaa !9
  %50 = getelementptr inbounds nuw %struct.VVCFrame, ptr %49, i32 0, i32 2
  call void @av_refstruct_unref(ptr noundef %50)
  %51 = load ptr, ptr %5, align 8, !tbaa !9
  %52 = getelementptr inbounds nuw %struct.VVCFrame, ptr %51, i32 0, i32 13
  call void @av_refstruct_unref(ptr noundef %52)
  %53 = load ptr, ptr %5, align 8, !tbaa !9
  %54 = getelementptr inbounds nuw %struct.VVCFrame, ptr %53, i32 0, i32 3
  call void @av_refstruct_unref(ptr noundef %54)
  %55 = load ptr, ptr %5, align 8, !tbaa !9
  %56 = getelementptr inbounds nuw %struct.VVCFrame, ptr %55, i32 0, i32 5
  call void @av_refstruct_unref(ptr noundef %56)
  %57 = load ptr, ptr %5, align 8, !tbaa !9
  %58 = getelementptr inbounds nuw %struct.VVCFrame, ptr %57, i32 0, i32 6
  store i32 0, ptr %58, align 8, !tbaa !28
  %59 = load ptr, ptr %5, align 8, !tbaa !9
  %60 = getelementptr inbounds nuw %struct.VVCFrame, ptr %59, i32 0, i32 4
  call void @av_refstruct_unref(ptr noundef %60)
  %61 = load ptr, ptr %5, align 8, !tbaa !9
  %62 = getelementptr inbounds nuw %struct.VVCFrame, ptr %61, i32 0, i32 12
  store ptr null, ptr %62, align 8, !tbaa !29
  %63 = load ptr, ptr %5, align 8, !tbaa !9
  %64 = getelementptr inbounds nuw %struct.VVCFrame, ptr %63, i32 0, i32 16
  call void @av_refstruct_unref(ptr noundef %64)
  br label %65

65:                                               ; preds = %19, %43, %38
  ret void
}