; Function Attrs: nounwind uwtable
define void @ff_vvc_unref_frame(ptr readnone captures(none) %0, ptr noundef %1, i32 noundef %2) local_unnamed_addr #0 {
  %4 = load ptr, ptr %1, align 8, !tbaa !4
  %.not = icmp eq ptr %4, null
  br i1 %.not, label %25, label %5

5:                                                ; preds = %3
  %6 = getelementptr inbounds nuw i8, ptr %4, i64 184
  %7 = load ptr, ptr %6, align 8, !tbaa !21
  %.not16 = icmp eq ptr %7, null
  br i1 %.not16, label %25, label %8

8:                                                ; preds = %5
  %9 = getelementptr inbounds nuw i8, ptr %1, i64 98
  %10 = load i8, ptr %9, align 2, !tbaa !23
  %11 = trunc i32 %2 to i8
  %12 = xor i8 %11, -1
  %13 = and i8 %10, %12
  %14 = and i8 %13, -17
  %.not17 = icmp eq i8 %14, 0
  %spec.select = select i1 %.not17, i8 0, i8 %13
  store i8 %spec.select, ptr %9, align 2, !tbaa !23
  %.not18 = icmp eq i8 %spec.select, 0
  br i1 %.not18, label %15, label %25

15:                                               ; preds = %8
  tail call void @av_frame_unref(ptr noundef nonnull %4) #9
  %16 = getelementptr inbounds nuw i8, ptr %1, i64 8
  tail call void @av_refstruct_unref(ptr noundef nonnull %16) #9
  %17 = getelementptr inbounds nuw i8, ptr %1, i64 16
  tail call void @av_refstruct_unref(ptr noundef nonnull %17) #9
  %18 = getelementptr inbounds nuw i8, ptr %1, i64 88
  tail call void @av_refstruct_unref(ptr noundef nonnull %18) #9
  %19 = getelementptr inbounds nuw i8, ptr %1, i64 24
  tail call void @av_refstruct_unref(ptr noundef nonnull %19) #9
  %20 = getelementptr inbounds nuw i8, ptr %1, i64 40
  tail call void @av_refstruct_unref(ptr noundef nonnull %20) #9
  %21 = getelementptr inbounds nuw i8, ptr %1, i64 48
  store i32 0, ptr %21, align 8, !tbaa !24
  %22 = getelementptr inbounds nuw i8, ptr %1, i64 32
  tail call void @av_refstruct_unref(ptr noundef nonnull %22) #9
  %23 = getelementptr inbounds nuw i8, ptr %1, i64 80
  store ptr null, ptr %23, align 8, !tbaa !25
  %24 = getelementptr inbounds nuw i8, ptr %1, i64 104
  tail call void @av_refstruct_unref(ptr noundef nonnull %24) #9
  br label %25

25:                                               ; preds = %3, %5, %15, %8
  ret void
}